target datalayout = "e-m:e-p270:32:32-p271:32:32-p272:64:64-i64:64-i128:128-f80:128-n8:16:32:64-S128"
target triple = "x86_64-pc-linux-gnu"

%struct.HEVCSEIDynamicHDRPlus = type { ptr }
%struct.GetByteContext = type { ptr, ptr, ptr }

; Function Attrs: alwaysinline nounwind uwtable
define internal i32 @bytestream2_get_bytes_left(ptr noundef %0) #5 {
  %2 = alloca ptr, align 8
  store ptr %0, ptr %2, align 8, !tbaa !13
  %3 = load ptr, ptr %2, align 8, !tbaa !13
  %4 = getelementptr inbounds nuw %struct.GetByteContext, ptr %3, i32 0, i32 1
  %5 = load ptr, ptr %4, align 8, !tbaa !233
  %6 = load ptr, ptr %2, align 8, !tbaa !13
  %7 = getelementptr inbounds nuw %struct.GetByteContext, ptr %6, i32 0, i32 0
  %8 = load ptr, ptr %7, align 8, !tbaa !38
  %9 = ptrtoint ptr %5 to i64
  %10 = ptrtoint ptr %8 to i64
  %11 = sub i64 %9, %10
  %12 = trunc i64 %11 to i32
  ret i32 %12
}

; Function Attrs: nounwind uwtable
define internal i32 @decode_registered_user_data_dynamic_hdr_plus(ptr noundef %0, ptr noundef %1) #0 {
  %3 = alloca i32, align 4
  %4 = alloca ptr, align 8
  %5 = alloca ptr, align 8
  %6 = alloca i64, align 8
  %7 = alloca i32, align 4
  %8 = alloca ptr, align 8
  %9 = alloca i32, align 4
  store ptr %0, ptr %4, align 8, !tbaa !244
  store ptr %1, ptr %5, align 8, !tbaa !13
  call void @llvm.lifetime.start.p0(i64 8, ptr %6) #10
  call void @llvm.lifetime.start.p0(i64 4, ptr %7) #10
  call void @llvm.lifetime.start.p0(i64 8, ptr %8) #10
  %10 = call ptr @av_dynamic_hdr_plus_alloc(ptr noundef %6)
  store ptr %10, ptr %8, align 8, !tbaa !246
  %11 = load ptr, ptr %8, align 8, !tbaa !246
  %12 = icmp ne ptr %11, null
  br i1 %12, label %14, label %13

13:                                               ; preds = %2
  store i32 -12, ptr %3, align 4
  store i32 1, ptr %9, align 4
  br label %43

14:                                               ; preds = %2
  %15 = load ptr, ptr %8, align 8, !tbaa !246
  %16 = load ptr, ptr %5, align 8, !tbaa !13
  %17 = getelementptr inbounds nuw %struct.GetByteContext, ptr %16, i32 0, i32 0
  %18 = load ptr, ptr %17, align 8, !tbaa !38
  %19 = load ptr, ptr %5, align 8, !tbaa !13
  %20 = call i32 @bytestream2_get_bytes_left(ptr noundef %19)
  %21 = sext i32 %20 to i64
  %22 = call i32 @av_dynamic_hdr_plus_from_t35(ptr noundef %15, ptr noundef %18, i64 noundef %21)
  store i32 %22, ptr %7, align 4, !tbaa !9
  %23 = load i32, ptr %7, align 4, !tbaa !9
  %24 = icmp slt i32 %23, 0
  br i1 %24, label %25, label %28

25:                                               ; preds = %14
  %26 = load ptr, ptr %8, align 8, !tbaa !246
  call void @av_free(ptr noundef %26)
  %27 = load i32, ptr %7, align 4, !tbaa !9
  store i32 %27, ptr %3, align 4
  store i32 1, ptr %9, align 4
  br label %43

28:                                               ; preds = %14
  %29 = load ptr, ptr %4, align 8, !tbaa !244
  %30 = getelementptr inbounds nuw %struct.HEVCSEIDynamicHDRPlus, ptr %29, i32 0, i32 0
  call void @av_buffer_unref(ptr noundef %30)
  %31 = load ptr, ptr %8, align 8, !tbaa !246
  %32 = load i64, ptr %6, align 8, !tbaa !60
  %33 = call ptr @av_buffer_create(ptr noundef %31, i64 noundef %32, ptr noundef null, ptr noundef null, i32 noundef 0)
  %34 = load ptr, ptr %4, align 8, !tbaa !244
  %35 = getelementptr inbounds nuw %struct.HEVCSEIDynamicHDRPlus, ptr %34, i32 0, i32 0
  store ptr %33, ptr %35, align 8, !tbaa !248
  %36 = load ptr, ptr %4, align 8, !tbaa !244
  %37 = getelementptr inbounds nuw %struct.HEVCSEIDynamicHDRPlus, ptr %36, i32 0, i32 0
  %38 = load ptr, ptr %37, align 8, !tbaa !248
  %39 = icmp ne ptr %38, null
  br i1 %39, label %42, label %40

40:                                               ; preds = %28
  %41 = load ptr, ptr %8, align 8, !tbaa !246
  call void @av_free(ptr noundef %41)
  store i32 -12, ptr %3, align 4
  store i32 1, ptr %9, align 4
  br label %43

42:                                               ; preds = %28
  store i32 0, ptr %3, align 4
  store i32 1, ptr %9, align 4
  br label %43

43:                                               ; preds = %42, %40, %25, %13
  call void @llvm.lifetime.end.p0(i64 8, ptr %8) #10
  call void @llvm.lifetime.end.p0(i64 4, ptr %7) #10
  call void @llvm.lifetime.end.p0(i64 8, ptr %6) #10
  %44 = load i32, ptr %3, align 4
  ret i32 %44
}